target datalayout = "e-m:e-p270:32:32-p271:32:32-p272:64:64-i64:64-i128:128-f80:128-n8:16:32:64-S128"
target triple = "x86_64-unknown-linux-gnu"

%"class.net::QuicTime" = type { i64 }
%"class.net::QuicConnection" = type <{ %"class.net::QuicFramerVisitorInterface", %"class.net::QuicBlockedWriterInterface", %"class.net::QuicPacketGenerator::DelegateInterface", %"class.net::QuicSentPacketManagerInterface::NetworkChangeVisitor", %"class.net::QuicFramer", ptr, ptr, ptr, ptr, i8, i8, [6 x i8], ptr, ptr, i64, %"class.net::IPEndPoint", %"class.net::IPEndPoint", i32, [4 x i8], i64, i8, [7 x i8], i64, ptr, i8, [7 x i8], %"struct.net::QuicPacketHeader", %"struct.net::QuicStopWaitingFrame", i8, [7 x i8], i64, i64, %"class.std::deque", i64, i8, [7 x i8], %"class.std::__cxx11::list", i8, [7 x i8], %"class.std::unique_ptr.42", i32, i8, [3 x i8], %"class.net::QuicReceivedPacketManager", %"class.net::QuicSentEntropyManager", i8, [7 x i8], i64, i8, [7 x i8], i64, i32, i32, float, i8, i8, i8, i8, %"class.net::QuicTime::Delta", %"class.net::QuicOneBlockArena", %"class.net::QuicArenaScopedPtr", %"class.net::QuicArenaScopedPtr", %"class.net::QuicArenaScopedPtr", %"class.net::QuicArenaScopedPtr", %"class.net::QuicArenaScopedPtr", %"class.net::QuicArenaScopedPtr", %"class.net::QuicArenaScopedPtr", ptr, ptr, %"class.net::QuicPacketGenerator", %"class.net::QuicTime::Delta", %"class.net::QuicTime::Delta", %"struct.net::QuicConnectionStats", %"class.net::QuicTime", %"class.net::QuicTime", %"class.net::QuicTime", i64, %"class.std::unique_ptr.77", i32, i32, i8, [7 x i8], %"class.net::IPEndPoint", %"class.net::IPEndPoint", i8, [7 x i8], %"class.std::vector.21", i64, i64, i64, i64, i64, i64, i64, i8, i8, i8, i8, [4 x i8] }>
%"class.net::QuicFramerVisitorInterface" = type { ptr }
%"class.net::QuicBlockedWriterInterface" = type { ptr }
%"class.net::QuicPacketGenerator::DelegateInterface" = type { %"class.net::QuicPacketCreator::DelegateInterface" }
%"class.net::QuicPacketCreator::DelegateInterface" = type { %"class.net::QuicConnectionCloseDelegateInterface" }
%"class.net::QuicConnectionCloseDelegateInterface" = type { ptr }
%"class.net::QuicSentPacketManagerInterface::NetworkChangeVisitor" = type { ptr }
%"class.net::QuicFramer" = type { ptr, %"class.std::__cxx11::basic_string", ptr, ptr, i32, %"class.std::unordered_set", %"class.std::unordered_map", i64, %"class.std::unordered_map", i64, i8, i64, i32, i32, %"class.std::vector.21", %"class.std::unique_ptr", %"class.std::unique_ptr", i8, i8, i8, [3 x %"class.std::unique_ptr.28"], i32, i8, %"class.net::QuicTime", %"class.net::QuicTime::Delta", %"struct.std::array" }
%"class.std::__cxx11::basic_string" = type { %"struct.std::__cxx11::basic_string<char>::_Alloc_hider", i64, %union.anon }
%"struct.std::__cxx11::basic_string<char>::_Alloc_hider" = type { ptr }
%union.anon = type { i64, [8 x i8] }
%"class.std::unordered_set" = type { %"class.std::_Hashtable" }
%"class.std::_Hashtable" = type { ptr, i64, %"struct.std::__detail::_Hash_node_base", i64, %"struct.std::__detail::_Prime_rehash_policy", ptr }
%"struct.std::__detail::_Hash_node_base" = type { ptr }
%"struct.std::__detail::_Prime_rehash_policy" = type { float, i64 }
%"class.std::unordered_map" = type { %"class.std::_Hashtable.8" }
%"class.std::_Hashtable.8" = type { ptr, i64, %"struct.std::__detail::_Hash_node_base", i64, %"struct.std::__detail::_Prime_rehash_policy", ptr }
%"class.std::unique_ptr" = type { %"struct.std::__uniq_ptr_data" }
%"struct.std::__uniq_ptr_data" = type { %"class.std::__uniq_ptr_impl" }
%"class.std::__uniq_ptr_impl" = type { %"class.std::tuple" }
%"class.std::tuple" = type { %"struct.std::_Tuple_impl" }
%"struct.std::_Tuple_impl" = type { %"struct.std::_Head_base.27" }
%"struct.std::_Head_base.27" = type { ptr }
%"class.std::unique_ptr.28" = type { %"struct.std::__uniq_ptr_data.29" }
%"struct.std::__uniq_ptr_data.29" = type { %"class.std::__uniq_ptr_impl.30" }
%"class.std::__uniq_ptr_impl.30" = type { %"class.std::tuple.31" }
%"class.std::tuple.31" = type { %"struct.std::_Tuple_impl.32" }
%"struct.std::_Tuple_impl.32" = type { %"struct.std::_Head_base.35" }
%"struct.std::_Head_base.35" = type { ptr }
%"struct.std::array" = type { [32 x i8] }
%"struct.net::QuicPacketHeader" = type <{ %"struct.net::QuicPacketPublicHeader", i64, i8, i8, i8, i8, [4 x i8] }>
%"struct.net::QuicPacketPublicHeader" = type { i64, i32, i8, i8, i8, i8, %"class.std::vector.21", ptr }
%"struct.net::QuicStopWaitingFrame" = type { i8, i8, i64 }
%"class.std::deque" = type { %"class.std::_Deque_base" }
%"class.std::_Deque_base" = type { %"struct.std::_Deque_base<net::QuicEncryptedPacket *, std::allocator<net::QuicEncryptedPacket *>>::_Deque_impl" }
%"struct.std::_Deque_base<net::QuicEncryptedPacket *, std::allocator<net::QuicEncryptedPacket *>>::_Deque_impl" = type { %"struct.std::_Deque_base<net::QuicEncryptedPacket *, std::allocator<net::QuicEncryptedPacket *>>::_Deque_impl_data" }
%"struct.std::_Deque_base<net::QuicEncryptedPacket *, std::allocator<net::QuicEncryptedPacket *>>::_Deque_impl_data" = type { ptr, i64, %"struct.std::_Deque_iterator", %"struct.std::_Deque_iterator" }
%"struct.std::_Deque_iterator" = type { ptr, ptr, ptr, ptr }
%"class.std::__cxx11::list" = type { %"class.std::__cxx11::_List_base" }
%"class.std::__cxx11::_List_base" = type { %"struct.std::__cxx11::_List_base<net::SerializedPacket, std::allocator<net::SerializedPacket>>::_List_impl" }
%"struct.std::__cxx11::_List_base<net::SerializedPacket, std::allocator<net::SerializedPacket>>::_List_impl" = type { %"struct.std::__detail::_List_node_header" }
%"struct.std::__detail::_List_node_header" = type { %"struct.std::__detail::_List_node_base", i64 }
%"struct.std::__detail::_List_node_base" = type { ptr, ptr }
%"class.std::unique_ptr.42" = type { %"struct.std::__uniq_ptr_data.43" }
%"struct.std::__uniq_ptr_data.43" = type { %"class.std::__uniq_ptr_impl.44" }
%"class.std::__uniq_ptr_impl.44" = type { %"class.std::tuple.45" }
%"class.std::tuple.45" = type { %"struct.std::_Tuple_impl.46" }
%"struct.std::_Tuple_impl.46" = type { %"struct.std::_Head_base.49" }
%"struct.std::_Head_base.49" = type { ptr }
%"class.net::QuicReceivedPacketManager" = type { %"class.net::QuicReceivedEntropyHashCalculatorInterface", %"class.net::QuicReceivedPacketManager::EntropyTracker", i64, %"struct.net::QuicAckFrame", i8, %"class.net::QuicTime", ptr }
%"class.net::QuicReceivedEntropyHashCalculatorInterface" = type { ptr }
%"class.net::QuicReceivedPacketManager::EntropyTracker" = type { %"class.std::deque.50", i8, i64, i64 }
%"class.std::deque.50" = type { %"class.std::_Deque_base.51" }
%"class.std::_Deque_base.51" = type { %"struct.std::_Deque_base<std::pair<unsigned char, bool>, std::allocator<std::pair<unsigned char, bool>>>::_Deque_impl" }
%"struct.std::_Deque_base<std::pair<unsigned char, bool>, std::allocator<std::pair<unsigned char, bool>>>::_Deque_impl" = type { %"struct.std::_Deque_base<std::pair<unsigned char, bool>, std::allocator<std::pair<unsigned char, bool>>>::_Deque_impl_data" }
%"struct.std::_Deque_base<std::pair<unsigned char, bool>, std::allocator<std::pair<unsigned char, bool>>>::_Deque_impl_data" = type { ptr, i64, %"struct.std::_Deque_iterator.55", %"struct.std::_Deque_iterator.55" }
%"struct.std::_Deque_iterator.55" = type { ptr, ptr, ptr, ptr }
%"struct.net::QuicAckFrame" = type <{ i64, %"class.net::QuicTime::Delta", %"class.std::vector.56", %"class.net::PacketNumberQueue", i8, i8, i8, i8, [4 x i8] }>
%"class.std::vector.56" = type { %"struct.std::_Vector_base.57" }
%"struct.std::_Vector_base.57" = type { %"struct.std::_Vector_base<std::pair<unsigned long, net::QuicTime>, std::allocator<std::pair<unsigned long, net::QuicTime>>>::_Vector_impl" }
%"struct.std::_Vector_base<std::pair<unsigned long, net::QuicTime>, std::allocator<std::pair<unsigned long, net::QuicTime>>>::_Vector_impl" = type { %"struct.std::_Vector_base<std::pair<unsigned long, net::QuicTime>, std::allocator<std::pair<unsigned long, net::QuicTime>>>::_Vector_impl_data" }
%"struct.std::_Vector_base<std::pair<unsigned long, net::QuicTime>, std::allocator<std::pair<unsigned long, net::QuicTime>>>::_Vector_impl_data" = type { ptr, ptr, ptr }
%"class.net::PacketNumberQueue" = type { %"class.net::IntervalSet" }
%"class.net::IntervalSet" = type { %"class.std::set" }
%"class.std::set" = type { %"class.std::_Rb_tree" }
%"class.std::_Rb_tree" = type { %"struct.std::_Rb_tree<net::Interval<unsigned long>, net::Interval<unsigned long>, std::_Identity<net::Interval<unsigned long>>, net::IntervalSet<unsigned long>::IntervalComparator>::_Rb_tree_impl" }
%"struct.std::_Rb_tree<net::Interval<unsigned long>, net::Interval<unsigned long>, std::_Identity<net::Interval<unsigned long>>, net::IntervalSet<unsigned long>::IntervalComparator>::_Rb_tree_impl" = type { %"struct.std::_Rb_tree_key_compare", %"struct.std::_Rb_tree_header" }
%"struct.std::_Rb_tree_key_compare" = type { %"struct.net::IntervalSet<unsigned long>::IntervalComparator" }
%"struct.net::IntervalSet<unsigned long>::IntervalComparator" = type { i8 }
%"struct.std::_Rb_tree_header" = type { %"struct.std::_Rb_tree_node_base", i64 }
%"struct.std::_Rb_tree_node_base" = type { i32, ptr, ptr, ptr }
%"class.net::QuicSentEntropyManager" = type { ptr, %"class.std::deque.64", i64, %"struct.net::QuicSentEntropyManager::CumulativeEntropy", %"struct.net::QuicSentEntropyManager::CumulativeEntropy" }
%"class.std::deque.64" = type { %"class.std::_Deque_base.65" }
%"class.std::_Deque_base.65" = type { %"struct.std::_Deque_base<unsigned char, std::allocator<unsigned char>>::_Deque_impl" }
%"struct.std::_Deque_base<unsigned char, std::allocator<unsigned char>>::_Deque_impl" = type { %"struct.std::_Deque_base<unsigned char, std::allocator<unsigned char>>::_Deque_impl_data" }
%"struct.std::_Deque_base<unsigned char, std::allocator<unsigned char>>::_Deque_impl_data" = type { ptr, i64, %"struct.std::_Deque_iterator.66", %"struct.std::_Deque_iterator.66" }
%"struct.std::_Deque_iterator.66" = type { ptr, ptr, ptr, ptr }
%"struct.net::QuicSentEntropyManager::CumulativeEntropy" = type <{ i64, i8, [7 x i8] }>
%"class.net::QuicOneBlockArena" = type { [1024 x i8], i32, [4 x i8] }
%"class.net::QuicArenaScopedPtr" = type { ptr }
%"class.net::QuicPacketGenerator" = type { ptr, %"class.net::QuicPacketCreator", %"class.std::vector.67", i8, i8, i8, [5 x i8], %"struct.net::QuicAckFrame", %"struct.net::QuicStopWaitingFrame" }
%"class.net::QuicPacketCreator" = type { ptr, ptr, ptr, %"class.net::QuicPacketCreator::QuicRandomBoolSource", ptr, i8, i8, i8, i8, %"struct.std::array", i64, i64, i32, %"class.std::vector.67", i64, i64, %"struct.net::SerializedPacket", %"class.std::unordered_map" }
%"class.net::QuicPacketCreator::QuicRandomBoolSource" = type { ptr, i64, i64 }
%"struct.net::SerializedPacket" = type { ptr, i16, %"class.std::vector.67", i8, i16, i8, i64, i8, i8, i8, i8, i8, i8, i8, i64, %"class.std::__cxx11::list.72" }
%"class.std::__cxx11::list.72" = type { %"class.std::__cxx11::_List_base.73" }
%"class.std::__cxx11::_List_base.73" = type { %"struct.std::__cxx11::_List_base<net::AckListenerWrapper, std::allocator<net::AckListenerWrapper>>::_List_impl" }
%"struct.std::__cxx11::_List_base<net::AckListenerWrapper, std::allocator<net::AckListenerWrapper>>::_List_impl" = type { %"struct.std::__detail::_List_node_header" }
%"class.std::vector.67" = type { %"struct.std::_Vector_base.68" }
%"struct.std::_Vector_base.68" = type { %"struct.std::_Vector_base<net::QuicFrame, std::allocator<net::QuicFrame>>::_Vector_impl" }
%"struct.std::_Vector_base<net::QuicFrame, std::allocator<net::QuicFrame>>::_Vector_impl" = type { %"struct.std::_Vector_base<net::QuicFrame, std::allocator<net::QuicFrame>>::_Vector_impl_data" }
%"struct.std::_Vector_base<net::QuicFrame, std::allocator<net::QuicFrame>>::_Vector_impl_data" = type { ptr, ptr, ptr }
%"class.net::QuicTime::Delta" = type { %"class.base::TimeDelta", i64 }
%"class.base::TimeDelta" = type { i64 }
%"struct.net::QuicConnectionStats" = type { i64, i64, i64, i64, i64, i64, i64, i64, i64, i64, i64, i64, i64, i64, i64, i64, i64, i64, i64, i64, i64, i64, i64, i64, i64, %"class.net::QuicBandwidth", i64, i64, i64, i32, %"class.net::QuicTime" }
%"class.net::QuicBandwidth" = type { i64 }
%"class.std::unique_ptr.77" = type { %"struct.std::__uniq_ptr_data.78" }
%"struct.std::__uniq_ptr_data.78" = type { %"class.std::__uniq_ptr_impl.79" }
%"class.std::__uniq_ptr_impl.79" = type { %"class.std::tuple.80" }
%"class.std::tuple.80" = type { %"struct.std::_Tuple_impl.81" }
%"struct.std::_Tuple_impl.81" = type { %"struct.std::_Head_base.84" }
%"struct.std::_Head_base.84" = type { ptr }
%"class.net::IPEndPoint" = type <{ %"class.net::IPAddress", i16, [6 x i8] }>
%"class.net::IPAddress" = type { %"class.std::vector" }
%"class.std::vector" = type { %"struct.std::_Vector_base" }
%"struct.std::_Vector_base" = type { %"struct.std::_Vector_base<unsigned char, std::allocator<unsigned char>>::_Vector_impl" }
%"struct.std::_Vector_base<unsigned char, std::allocator<unsigned char>>::_Vector_impl" = type { %"struct.std::_Vector_base<unsigned char, std::allocator<unsigned char>>::_Vector_impl_data" }
%"struct.std::_Vector_base<unsigned char, std::allocator<unsigned char>>::_Vector_impl_data" = type { ptr, ptr, ptr }
%"class.std::vector.21" = type { %"struct.std::_Vector_base.22" }
%"struct.std::_Vector_base.22" = type { %"struct.std::_Vector_base<net::QuicVersion, std::allocator<net::QuicVersion>>::_Vector_impl" }
%"struct.std::_Vector_base<net::QuicVersion, std::allocator<net::QuicVersion>>::_Vector_impl" = type { %"struct.std::_Vector_base<net::QuicVersion, std::allocator<net::QuicVersion>>::_Vector_impl_data" }
%"struct.std::_Vector_base<net::QuicVersion, std::allocator<net::QuicVersion>>::_Vector_impl_data" = type { ptr, ptr, ptr }
%"class.logging::LogMessage" = type <{ i32, [4 x i8], %"class.std::__cxx11::basic_ostringstream", i64, ptr, i32, [4 x i8] }>
%"class.std::__cxx11::basic_ostringstream" = type { %"class.std::basic_ostream.base", %"class.std::__cxx11::basic_stringbuf", %"class.std::basic_ios" }
%"class.std::basic_ostream.base" = type { ptr }
%"class.std::__cxx11::basic_stringbuf" = type { %"class.std::basic_streambuf", i32, %"class.std::__cxx11::basic_string" }
%"class.std::basic_streambuf" = type { ptr, ptr, ptr, ptr, ptr, ptr, ptr, %"class.std::locale" }
%"class.std::locale" = type { ptr }
%"class.std::basic_ios" = type { %"class.std::ios_base", ptr, i8, i8, ptr, ptr, ptr, ptr }
%"class.std::ios_base" = type { ptr, i64, i64, i32, i32, i32, ptr, %"struct.std::ios_base::_Words", [8 x %"struct.std::ios_base::_Words"], i32, ptr, %"class.std::locale" }
%"struct.std::ios_base::_Words" = type { ptr, i64 }
%"class.logging::LogMessageVoidify" = type { i8 }
%"class.net::QuicConnection::ScopedPacketBundler" = type <{ ptr, i8, [7 x i8] }>

@.str = private unnamed_addr constant [130 x i8] c"generated/home/dtcxzyw/WorkSpace/Projects/compilers/llvm-opt-benchmark/bench/libquic/libquic/src/net/quic/core/quic_connection.cc\00", align 1
@.str.57 = private unnamed_addr constant [22 x i8] c"Unsupported ack_mode.\00", align 1

; Function Attrs: mustprogress nounwind uwtable
define linkonce_odr dso_local noundef ptr @_ZNK3net18QuicArenaScopedPtrINS_9QuicAlarmEE3getEv(ptr noundef nonnull align 8 dereferenceable(8) %this) #1 comdat align 2 {
entry:
  %this.addr = alloca ptr, align 8
  store ptr %this, ptr %this.addr, align 8
  %this1 = load ptr, ptr %this.addr, align 8
  %value_ = getelementptr inbounds %"class.net::QuicArenaScopedPtr", ptr %this1, i32 0, i32 0
  %0 = load ptr, ptr %value_, align 8
  %1 = ptrtoint ptr %0 to i64
  %and = and i64 %1, -2
  %2 = inttoptr i64 %and to ptr
  ret ptr %2
}

; Function Attrs: mustprogress nounwind uwtable
define linkonce_odr dso_local void @_ZN7logging17LogMessageVoidifyanERSo(ptr noundef nonnull align 1 dereferenceable(1) %this, ptr noundef nonnull align 8 dereferenceable(8) %0) #1 comdat align 2 {
entry:
  %this.addr = alloca ptr, align 8
  %.addr = alloca ptr, align 8
  store ptr %this, ptr %this.addr, align 8
  store ptr %0, ptr %.addr, align 8
  ret void
}

; Function Attrs: mustprogress nounwind uwtable
define linkonce_odr dso_local noundef nonnull align 8 dereferenceable(8) ptr @_ZN7logging10LogMessage6streamEv(ptr noundef nonnull align 8 dereferenceable(404) %this) #1 comdat align 2 {
entry:
  %this.addr = alloca ptr, align 8
  store ptr %this, ptr %this.addr, align 8
  %this1 = load ptr, ptr %this.addr, align 8
  %stream_ = getelementptr inbounds %"class.logging::LogMessage", ptr %this1, i32 0, i32 2
  ret ptr %stream_
}

; Function Attrs: mustprogress nounwind uwtable
define linkonce_odr dso_local void @_ZN7logging17LogMessageVoidifyC2Ev(ptr noundef nonnull align 1 dereferenceable(1) %this) unnamed_addr #1 comdat align 2 {
entry:
  %this.addr = alloca ptr, align 8
  store ptr %this, ptr %this.addr, align 8
  ret void
}

; Function Attrs: mustprogress nounwind uwtable
define linkonce_odr dso_local noundef ptr @_ZNK3net18QuicArenaScopedPtrINS_9QuicAlarmEEptEv(ptr noundef nonnull align 8 dereferenceable(8) %this) #1 comdat align 2 {
entry:
  %this.addr = alloca ptr, align 8
  store ptr %this, ptr %this.addr, align 8
  %this1 = load ptr, ptr %this.addr, align 8
  %call = call noundef ptr @_ZNK3net18QuicArenaScopedPtrINS_9QuicAlarmEE3getEv(ptr noundef nonnull align 8 dereferenceable(8) %this1)
  ret ptr %call
}

; Function Attrs: mustprogress nounwind uwtable
define linkonce_odr dso_local noundef zeroext i1 @_ZNK3net14QuicConnection10ack_queuedEv(ptr noundef nonnull align 8 dereferenceable(3372) %this) #1 comdat align 2 {
entry:
  %this.addr = alloca ptr, align 8
  store ptr %this, ptr %this.addr, align 8
  %this1 = load ptr, ptr %this.addr, align 8
  %ack_queued_ = getelementptr inbounds %"class.net::QuicConnection", ptr %this1, i32 0, i32 45
  %0 = load i8, ptr %ack_queued_, align 8
  %tobool = trunc i8 %0 to i1
  ret i1 %tobool
}

; Function Attrs: mustprogress uwtable
define dso_local noundef zeroext i1 @_ZNK3net14QuicConnection19ScopedPacketBundler13ShouldSendAckENS0_11AckBundlingE(ptr noundef nonnull align 8 dereferenceable(9) %this, i32 noundef %ack_mode) #0 align 2 personality ptr @__gxx_personality_v0 {
entry:
  %retval = alloca i1, align 1
  %this.addr = alloca ptr, align 8
  %ack_mode.addr = alloca i32, align 4
  %ref.tmp = alloca %"class.logging::LogMessageVoidify", align 1
  %ref.tmp10 = alloca %"class.logging::LogMessage", align 8
  %cleanup.cond = alloca i1, align 1
  %exn.slot = alloca ptr, align 8
  %ehselector.slot = alloca i32, align 4
  store ptr %this, ptr %this.addr, align 8
  store i32 %ack_mode, ptr %ack_mode.addr, align 4
  %this1 = load ptr, ptr %this.addr, align 8
  %0 = load i32, ptr %ack_mode.addr, align 4
  switch i32 %0, label %sw.default [
    i32 1, label %sw.bb
    i32 0, label %sw.bb2
    i32 2, label %sw.bb3
    i32 3, label %sw.bb8
  ]

sw.bb:                                            ; preds = %entry
  store i1 true, ptr %retval, align 1
  br label %return

sw.bb2:                                           ; preds = %entry
  %connection_ = getelementptr inbounds %"class.net::QuicConnection::ScopedPacketBundler", ptr %this1, i32 0, i32 0
  %1 = load ptr, ptr %connection_, align 8
  %call = call noundef zeroext i1 @_ZNK3net14QuicConnection10ack_queuedEv(ptr noundef nonnull align 8 dereferenceable(3372) %1)
  store i1 %call, ptr %retval, align 1
  br label %return

sw.bb3:                                           ; preds = %entry
  %connection_4 = getelementptr inbounds %"class.net::QuicConnection::ScopedPacketBundler", ptr %this1, i32 0, i32 0
  %2 = load ptr, ptr %connection_4, align 8
  %ack_alarm_ = getelementptr inbounds %"class.net::QuicConnection", ptr %2, i32 0, i32 60
  %call5 = call noundef ptr @_ZNK3net18QuicArenaScopedPtrINS_9QuicAlarmEEptEv(ptr noundef nonnull align 8 dereferenceable(8) %ack_alarm_)
  %call6 = call noundef zeroext i1 @_ZNK3net9QuicAlarm5IsSetEv(ptr noundef nonnull align 8 dereferenceable(24) %call5)
  br i1 %call6, label %lor.end, label %lor.rhs

lor.rhs:                                          ; preds = %sw.bb3
  %connection_7 = getelementptr inbounds %"class.net::QuicConnection::ScopedPacketBundler", ptr %this1, i32 0, i32 0
  %3 = load ptr, ptr %connection_7, align 8
  %stop_waiting_count_ = getelementptr inbounds %"class.net::QuicConnection", ptr %3, i32 0, i32 51
  %4 = load i32, ptr %stop_waiting_count_, align 8
  %cmp = icmp sgt i32 %4, 1
  br label %lor.end

lor.end:                                          ; preds = %lor.rhs, %sw.bb3
  %5 = phi i1 [ true, %sw.bb3 ], [ %cmp, %lor.rhs ]
  store i1 %5, ptr %retval, align 1
  br label %return

sw.bb8:                                           ; preds = %entry
  store i1 false, ptr %retval, align 1
  br label %return

sw.default:                                       ; preds = %entry
  %call9 = call noundef zeroext i1 @_ZN7logging22ShouldCreateLogMessageEi(i32 noundef 2)
  store i1 false, ptr %cleanup.cond, align 1
  br i1 %call9, label %cond.false, label %cond.true

cond.true:                                        ; preds = %sw.default
  br label %cond.end

cond.false:                                       ; preds = %sw.default
  call void @_ZN7logging17LogMessageVoidifyC2Ev(ptr noundef nonnull align 1 dereferenceable(1) %ref.tmp)
  call void @_ZN7logging10LogMessageC1EPKcii(ptr noundef nonnull align 8 dereferenceable(404) %ref.tmp10, ptr noundef @.str, i32 noundef 2321, i32 noundef 2)
  store i1 true, ptr %cleanup.cond, align 1
  %call11 = invoke noundef nonnull align 8 dereferenceable(8) ptr @_ZN7logging10LogMessage6streamEv(ptr noundef nonnull align 8 dereferenceable(404) %ref.tmp10)
          to label %invoke.cont unwind label %lpad

invoke.cont:                                      ; preds = %cond.false
  %call13 = invoke noundef nonnull align 8 dereferenceable(8) ptr @_ZStlsISt11char_traitsIcEERSt13basic_ostreamIcT_ES5_PKc(ptr noundef nonnull align 8 dereferenceable(8) %call11, ptr noundef @.str.57)
          to label %invoke.cont12 unwind label %lpad

invoke.cont12:                                    ; preds = %invoke.cont
  invoke void @_ZN7logging17LogMessageVoidifyanERSo(ptr noundef nonnull align 1 dereferenceable(1) %ref.tmp, ptr noundef nonnull align 8 dereferenceable(8) %call13)
          to label %invoke.cont14 unwind label %lpad

invoke.cont14:                                    ; preds = %invoke.cont12
  br label %cond.end

cond.end:                                         ; preds = %invoke.cont14, %cond.true
  %cleanup.is_active = load i1, ptr %cleanup.cond, align 1
  br i1 %cleanup.is_active, label %cleanup.action, label %cleanup.done

cleanup.action:                                   ; preds = %cond.end
  call void @_ZN7logging10LogMessageD1Ev(ptr noundef nonnull align 8 dereferenceable(404) %ref.tmp10) #14
  br label %cleanup.done

cleanup.done:                                     ; preds = %cleanup.action, %cond.end
  store i1 true, ptr %retval, align 1
  br label %return

lpad:                                             ; preds = %invoke.cont12, %invoke.cont, %cond.false
  %6 = landingpad { ptr, i32 }
          cleanup
  %7 = extractvalue { ptr, i32 } %6, 0
  store ptr %7, ptr %exn.slot, align 8
  %8 = extractvalue { ptr, i32 } %6, 1
  store i32 %8, ptr %ehselector.slot, align 4
  %cleanup.is_active15 = load i1, ptr %cleanup.cond, align 1
  br i1 %cleanup.is_active15, label %cleanup.action16, label %cleanup.done17

cleanup.action16:                                 ; preds = %lpad
  call void @_ZN7logging10LogMessageD1Ev(ptr noundef nonnull align 8 dereferenceable(404) %ref.tmp10) #14
  br label %cleanup.done17

cleanup.done17:                                   ; preds = %cleanup.action16, %lpad
  br label %eh.resume

return:                                           ; preds = %cleanup.done, %sw.bb8, %lor.end, %sw.bb2, %sw.bb
  %9 = load i1, ptr %retval, align 1
  ret i1 %9

eh.resume:                                        ; preds = %cleanup.done17
  %exn = load ptr, ptr %exn.slot, align 8
  %sel = load i32, ptr %ehselector.slot, align 4
  %lpad.val = insertvalue { ptr, i32 } poison, ptr %exn, 0
  %lpad.val18 = insertvalue { ptr, i32 } %lpad.val, i32 %sel, 1
  resume { ptr, i32 } %lpad.val18
}