; Function Attrs: mustprogress uwtable
define dso_local noundef zeroext i1 @_ZNK3net14QuicConnection19ScopedPacketBundler13ShouldSendAckENS0_11AckBundlingE(ptr nocapture noundef nonnull readonly align 8 dereferenceable(9) %this, i32 noundef %ack_mode) local_unnamed_addr #0 align 2 personality ptr @__gxx_personality_v0 {
entry:
  %ref.tmp10 = alloca %"class.logging::LogMessage", align 8
  switch i32 %ack_mode, label %sw.default [
    i32 1, label %return
    i32 0, label %sw.bb2
    i32 2, label %sw.bb3
    i32 3, label %sw.bb8
  ]

sw.bb2:                                           ; preds = %entry
  %0 = load ptr, ptr %this, align 8
  %ack_queued_.i = getelementptr inbounds i8, ptr %0, i64 1240
  %1 = load i8, ptr %ack_queued_.i, align 8
  %2 = and i8 %1, 1
  %tobool.i = icmp ne i8 %2, 0
  br label %return

sw.bb3:                                           ; preds = %entry
  %3 = load ptr, ptr %this, align 8
  %ack_alarm_ = getelementptr inbounds i8, ptr %3, i64 2336
  %4 = load ptr, ptr %ack_alarm_, align 8
  %5 = ptrtoint ptr %4 to i64
  %and.i.i = and i64 %5, -2
  %6 = inttoptr i64 %and.i.i to ptr
  %call6 = tail call noundef zeroext i1 @_ZNK3net9QuicAlarm5IsSetEv(ptr noundef nonnull align 8 dereferenceable(24) %6)
  br i1 %call6, label %return, label %lor.rhs

lor.rhs:                                          ; preds = %sw.bb3
  %7 = load ptr, ptr %this, align 8
  %stop_waiting_count_ = getelementptr inbounds i8, ptr %7, i64 1272
  %8 = load i32, ptr %stop_waiting_count_, align 8
  %cmp = icmp sgt i32 %8, 1
  br label %return

sw.bb8:                                           ; preds = %entry
  br label %return

sw.default:                                       ; preds = %entry
  %call9 = tail call noundef zeroext i1 @_ZN7logging22ShouldCreateLogMessageEi(i32 noundef 2)
  br i1 %call9, label %cond.false, label %return

cond.false:                                       ; preds = %sw.default
  call void @_ZN7logging10LogMessageC1EPKcii(ptr noundef nonnull align 8 dereferenceable(404) %ref.tmp10, ptr noundef nonnull @.str, i32 noundef 2321, i32 noundef 2)
  %stream_.i = getelementptr inbounds i8, ptr %ref.tmp10, i64 8
  %call13 = invoke noundef nonnull align 8 dereferenceable(8) ptr @_ZStlsISt11char_traitsIcEERSt13basic_ostreamIcT_ES5_PKc(ptr noundef nonnull align 8 dereferenceable(8) %stream_.i, ptr noundef nonnull @.str.57)
          to label %cleanup.action unwind label %lpad

cleanup.action:                                   ; preds = %cond.false
  call void @_ZN7logging10LogMessageD1Ev(ptr noundef nonnull align 8 dereferenceable(404) %ref.tmp10) #22
  br label %return

lpad:                                             ; preds = %cond.false
  %9 = landingpad { ptr, i32 }
          cleanup
  call void @_ZN7logging10LogMessageD1Ev(ptr noundef nonnull align 8 dereferenceable(404) %ref.tmp10) #22
  resume { ptr, i32 } %9

return:                                           ; preds = %cleanup.action, %sw.default, %sw.bb3, %lor.rhs, %entry, %sw.bb8, %sw.bb2
  %retval.0 = phi i1 [ false, %sw.bb8 ], [ %tobool.i, %sw.bb2 ], [ true, %entry ], [ true, %sw.bb3 ], [ %cmp, %lor.rhs ], [ true, %sw.default ], [ true, %cleanup.action ]
  ret i1 %retval.0
}